target datalayout = "e-m:e-p270:32:32-p271:32:32-p272:64:64-i64:64-i128:128-f80:128-n8:16:32:64-S128"
target triple = "x86_64-pc-linux-gnu"

%struct.expert_field = type { i32, i32 }

@hf_hdr_name_value = internal global i32 0, align 4
@ei_wsp_oversized_uintvar = internal global %struct.expert_field zeroinitializer, align 4
@ett_header = internal global i32 0, align 4
@ei_wsp_header_invalid_value = internal global %struct.expert_field zeroinitializer, align 4
@hf_hdr_content_disposition = internal global i32 0, align 4
@ett_content_disposition = internal global i32 0, align 4
@.str.1108 = private unnamed_addr constant [20 x i8] c"Content Disposition\00", align 1
@.str.1109 = private unnamed_addr constant [10 x i8] c"form-data\00", align 1
@.str.1110 = private unnamed_addr constant [11 x i8] c"attachment\00", align 1
@.str.1111 = private unnamed_addr constant [7 x i8] c"inline\00", align 1

; Function Attrs: null_pointer_is_valid sspstrong uwtable
define internal i32 @wkh_content_disposition(ptr noundef %0, ptr noundef %1, i32 noundef %2, ptr noundef %3) #1 {
  %5 = alloca ptr, align 8
  %6 = alloca ptr, align 8
  %7 = alloca i32, align 4
  %8 = alloca ptr, align 8
  %9 = alloca i8, align 1
  %10 = alloca ptr, align 8
  %11 = alloca ptr, align 8
  %12 = alloca i32, align 4
  %13 = alloca i8, align 1
  %14 = alloca i32, align 4
  %15 = alloca i32, align 4
  %16 = alloca i32, align 4
  %17 = alloca i32, align 4
  %18 = alloca i32, align 4
  %19 = alloca i8, align 1
  %20 = alloca ptr, align 8
  %21 = alloca ptr, align 8
  %22 = alloca ptr, align 8
  store ptr %0, ptr %5, align 8
  store ptr %1, ptr %6, align 8
  store i32 %2, ptr %7, align 4
  store ptr %3, ptr %8, align 8
  call void @llvm.lifetime.start.p0(i64 1, ptr %9) #8
  store i8 0, ptr %9, align 1
  call void @llvm.lifetime.start.p0(i64 8, ptr %10) #8
  call void @llvm.lifetime.start.p0(i64 8, ptr %11) #8
  call void @llvm.lifetime.start.p0(i64 4, ptr %12) #8
  %23 = load i32, ptr %7, align 4
  %24 = add i32 %23, 1
  store i32 %24, ptr %12, align 4
  call void @llvm.lifetime.start.p0(i64 1, ptr %13) #8
  %25 = load ptr, ptr %6, align 8
  %26 = load i32, ptr %12, align 4
  %27 = call zeroext i8 @tvb_get_uint8(ptr noundef %25, i32 noundef %26)
  store i8 %27, ptr %13, align 1
  call void @llvm.lifetime.start.p0(i64 4, ptr %14) #8
  %28 = load i32, ptr %12, align 4
  store i32 %28, ptr %14, align 4
  call void @llvm.lifetime.start.p0(i64 4, ptr %15) #8
  call void @llvm.lifetime.start.p0(i64 4, ptr %16) #8
  call void @llvm.lifetime.start.p0(i64 4, ptr %17) #8
  call void @llvm.lifetime.start.p0(i64 4, ptr %18) #8
  call void @llvm.lifetime.start.p0(i64 1, ptr %19) #8
  call void @llvm.lifetime.start.p0(i64 8, ptr %20) #8
  call void @llvm.lifetime.start.p0(i64 8, ptr %21) #8
  store ptr null, ptr %21, align 8
  call void @llvm.lifetime.start.p0(i64 8, ptr %22) #8
  store ptr null, ptr %22, align 8
  %29 = load ptr, ptr %5, align 8
  %30 = load ptr, ptr %6, align 8
  %31 = load i32, ptr %7, align 4
  %32 = load i32, ptr %14, align 4
  %33 = load i32, ptr %7, align 4
  %34 = sub i32 %32, %33
  %35 = load i32, ptr @ett_content_disposition, align 4
  %36 = call ptr @proto_tree_add_subtree(ptr noundef %29, ptr noundef %30, i32 noundef %31, i32 noundef %34, i32 noundef %35, ptr noundef %11, ptr noundef @.str.1108)
  store ptr %36, ptr %10, align 8
  %37 = load ptr, ptr %10, align 8
  %38 = load i32, ptr @hf_hdr_name_value, align 4
  %39 = load ptr, ptr %6, align 8
  %40 = load i32, ptr %7, align 4
  %41 = call ptr @proto_tree_add_item(ptr noundef %37, i32 noundef %38, ptr noundef %39, i32 noundef %40, i32 noundef 1, i32 noundef 0)
  %42 = load i8, ptr %13, align 1
  %43 = zext i8 %42 to i32
  %44 = and i32 %43, 128
  %45 = icmp ne i32 %44, 0
  br i1 %45, label %46, label %49

46:                                               ; preds = %4
  %47 = load i32, ptr %14, align 4
  %48 = add i32 %47, 1
  store i32 %48, ptr %14, align 4
  br label %200

49:                                               ; preds = %4
  %50 = load i8, ptr %13, align 1
  %51 = zext i8 %50 to i32
  %52 = icmp eq i32 %51, 0
  br i1 %52, label %57, label %53

53:                                               ; preds = %49
  %54 = load i8, ptr %13, align 1
  %55 = zext i8 %54 to i32
  %56 = icmp sge i32 %55, 32
  br i1 %56, label %57, label %65

57:                                               ; preds = %53, %49
  %58 = call ptr @wmem_packet_scope()
  %59 = load ptr, ptr %6, align 8
  %60 = load i32, ptr %12, align 4
  %61 = call ptr @tvb_get_stringz_enc(ptr noundef %58, ptr noundef %59, i32 noundef %60, ptr noundef %15, i32 noundef 0)
  %62 = load i32, ptr %12, align 4
  %63 = load i32, ptr %15, align 4
  %64 = add i32 %62, %63
  store i32 %64, ptr %14, align 4
  br label %199

65:                                               ; preds = %53
  %66 = load i8, ptr %13, align 1
  %67 = zext i8 %66 to i32
  %68 = icmp eq i32 %67, 31
  br i1 %68, label %69, label %77

69:                                               ; preds = %65
  %70 = load ptr, ptr %6, align 8
  %71 = load i32, ptr %12, align 4
  %72 = add i32 %71, 1
  %73 = load ptr, ptr %8, align 8
  %74 = call i32 @tvb_get_uintvar(ptr noundef %70, i32 noundef %72, ptr noundef %16, ptr noundef %73, ptr noundef @ei_wsp_oversized_uintvar)
  store i32 %74, ptr %15, align 4
  %75 = load i32, ptr %16, align 4
  %76 = add i32 %75, 1
  store i32 %76, ptr %16, align 4
  br label %82

77:                                               ; preds = %65
  %78 = load ptr, ptr %6, align 8
  %79 = load i32, ptr %14, align 4
  %80 = call zeroext i8 @tvb_get_uint8(ptr noundef %78, i32 noundef %79)
  %81 = zext i8 %80 to i32
  store i32 %81, ptr %15, align 4
  store i32 1, ptr %16, align 4
  br label %82

82:                                               ; preds = %77, %69
  %83 = load i32, ptr %16, align 4
  %84 = load i32, ptr %15, align 4
  %85 = add i32 %83, %84
  %86 = load i32, ptr %14, align 4
  %87 = add i32 %86, %85
  store i32 %87, ptr %14, align 4
  %88 = load i32, ptr %12, align 4
  %89 = load i32, ptr %16, align 4
  %90 = add i32 %88, %89
  store i32 %90, ptr %18, align 4
  %91 = load ptr, ptr %6, align 8
  %92 = load i32, ptr %18, align 4
  %93 = call zeroext i8 @tvb_get_uint8(ptr noundef %91, i32 noundef %92)
  store i8 %93, ptr %19, align 1
  %94 = load i8, ptr %19, align 1
  %95 = zext i8 %94 to i32
  %96 = and i32 %95, 128
  %97 = icmp ne i32 %96, 0
  br i1 %97, label %98, label %131

98:                                               ; preds = %82
  %99 = load i8, ptr %19, align 1
  %100 = zext i8 %99 to i32
  switch i32 %100, label %128 [
    i32 128, label %101
    i32 129, label %110
    i32 130, label %119
  ]

101:                                              ; preds = %98
  %102 = load ptr, ptr %5, align 8
  %103 = load i32, ptr @hf_hdr_content_disposition, align 4
  %104 = load ptr, ptr %6, align 8
  %105 = load i32, ptr %7, align 4
  %106 = load i32, ptr %14, align 4
  %107 = load i32, ptr %7, align 4
  %108 = sub i32 %106, %107
  %109 = call ptr @proto_tree_add_string(ptr noundef %102, i32 noundef %103, ptr noundef %104, i32 noundef %105, i32 noundef %108, ptr noundef @.str.1109)
  store ptr %109, ptr %21, align 8
  store i8 1, ptr %9, align 1
  br label %128

110:                                              ; preds = %98
  %111 = load ptr, ptr %5, align 8
  %112 = load i32, ptr @hf_hdr_content_disposition, align 4
  %113 = load ptr, ptr %6, align 8
  %114 = load i32, ptr %7, align 4
  %115 = load i32, ptr %14, align 4
  %116 = load i32, ptr %7, align 4
  %117 = sub i32 %115, %116
  %118 = call ptr @proto_tree_add_string(ptr noundef %111, i32 noundef %112, ptr noundef %113, i32 noundef %114, i32 noundef %117, ptr noundef @.str.1110)
  store ptr %118, ptr %21, align 8
  store i8 1, ptr %9, align 1
  br label %128

119:                                              ; preds = %98
  %120 = load ptr, ptr %5, align 8
  %121 = load i32, ptr @hf_hdr_content_disposition, align 4
  %122 = load ptr, ptr %6, align 8
  %123 = load i32, ptr %7, align 4
  %124 = load i32, ptr %14, align 4
  %125 = load i32, ptr %7, align 4
  %126 = sub i32 %124, %125
  %127 = call ptr @proto_tree_add_string(ptr noundef %120, i32 noundef %121, ptr noundef %122, i32 noundef %123, i32 noundef %126, ptr noundef @.str.1111)
  store ptr %127, ptr %21, align 8
  store i8 1, ptr %9, align 1
  br label %128

128:                                              ; preds = %98, %119, %110, %101
  %129 = load i32, ptr %18, align 4
  %130 = add i32 %129, 1
  store i32 %130, ptr %18, align 4
  br label %172

131:                                              ; preds = %82
  %132 = load ptr, ptr %6, align 8
  %133 = load i32, ptr %18, align 4
  %134 = call zeroext i8 @tvb_get_uint8(ptr noundef %132, i32 noundef %133)
  %135 = zext i8 %134 to i32
  %136 = icmp eq i32 %135, 0
  br i1 %136, label %149, label %137

137:                                              ; preds = %131
  %138 = load ptr, ptr %6, align 8
  %139 = load i32, ptr %18, align 4
  %140 = call zeroext i8 @tvb_get_uint8(ptr noundef %138, i32 noundef %139)
  %141 = zext i8 %140 to i32
  %142 = icmp sge i32 %141, 32
  br i1 %142, label %143, label %154

143:                                              ; preds = %137
  %144 = load ptr, ptr %6, align 8
  %145 = load i32, ptr %18, align 4
  %146 = call zeroext i8 @tvb_get_uint8(ptr noundef %144, i32 noundef %145)
  %147 = zext i8 %146 to i32
  %148 = icmp sle i32 %147, 127
  br i1 %148, label %149, label %154

149:                                              ; preds = %143, %131
  %150 = call ptr @wmem_packet_scope()
  %151 = load ptr, ptr %6, align 8
  %152 = load i32, ptr %18, align 4
  %153 = call ptr @tvb_get_stringz_enc(ptr noundef %150, ptr noundef %151, i32 noundef %152, ptr noundef %17, i32 noundef 0)
  store ptr %153, ptr %20, align 8
  store i8 1, ptr %9, align 1
  br label %155

154:                                              ; preds = %143, %137
  store i32 0, ptr %17, align 4
  store ptr null, ptr %20, align 8
  store i8 0, ptr %9, align 1
  br label %155

155:                                              ; preds = %154, %149
  %156 = load i8, ptr %9, align 1, !range !6, !noundef !7
  %157 = trunc i8 %156 to i1
  br i1 %157, label %158, label %168

158:                                              ; preds = %155
  %159 = load ptr, ptr %5, align 8
  %160 = load i32, ptr @hf_hdr_content_disposition, align 4
  %161 = load ptr, ptr %6, align 8
  %162 = load i32, ptr %7, align 4
  %163 = load i32, ptr %14, align 4
  %164 = load i32, ptr %7, align 4
  %165 = sub i32 %163, %164
  %166 = load ptr, ptr %20, align 8
  %167 = call ptr @proto_tree_add_string(ptr noundef %159, i32 noundef %160, ptr noundef %161, i32 noundef %162, i32 noundef %165, ptr noundef %166)
  store ptr %167, ptr %21, align 8
  br label %168

168:                                              ; preds = %158, %155
  %169 = load i32, ptr %17, align 4
  %170 = load i32, ptr %18, align 4
  %171 = add i32 %170, %169
  store i32 %171, ptr %18, align 4
  br label %172

172:                                              ; preds = %168, %128
  %173 = load i8, ptr %9, align 1, !range !6, !noundef !7
  %174 = trunc i8 %173 to i1
  br i1 %174, label %175, label %198

175:                                              ; preds = %172
  %176 = load i32, ptr %18, align 4
  %177 = load i32, ptr %14, align 4
  %178 = icmp ult i32 %176, %177
  br i1 %178, label %179, label %198

179:                                              ; preds = %175
  %180 = load ptr, ptr %21, align 8
  %181 = load i32, ptr @ett_header, align 4
  %182 = call ptr @proto_item_add_subtree(ptr noundef %180, i32 noundef %181)
  store ptr %182, ptr %22, align 8
  br label %183

183:                                              ; preds = %187, %179
  %184 = load i32, ptr %18, align 4
  %185 = load i32, ptr %14, align 4
  %186 = icmp ult i32 %184, %185
  br i1 %186, label %187, label %197

187:                                              ; preds = %183
  %188 = load ptr, ptr %22, align 8
  %189 = load ptr, ptr %8, align 8
  %190 = load ptr, ptr %21, align 8
  %191 = load ptr, ptr %6, align 8
  %192 = load i32, ptr %18, align 4
  %193 = load i32, ptr %14, align 4
  %194 = load i32, ptr %18, align 4
  %195 = sub i32 %193, %194
  %196 = call i32 @parameter(ptr noundef %188, ptr noundef %189, ptr noundef %190, ptr noundef %191, i32 noundef %192, i32 noundef %195)
  store i32 %196, ptr %18, align 4
  br label %183, !llvm.loop !21

197:                                              ; preds = %183
  br label %198

198:                                              ; preds = %197, %175, %172
  br label %199

199:                                              ; preds = %198, %57
  br label %200

200:                                              ; preds = %199, %46
  %201 = load i8, ptr %9, align 1, !range !6, !noundef !7
  %202 = trunc i8 %201 to i1
  br i1 %202, label %207, label %203

203:                                              ; preds = %200
  %204 = load ptr, ptr %8, align 8
  %205 = load ptr, ptr %11, align 8
  %206 = call ptr @expert_add_info(ptr noundef %204, ptr noundef %205, ptr noundef @ei_wsp_header_invalid_value)
  br label %207

207:                                              ; preds = %203, %200
  %208 = load i32, ptr %14, align 4
  call void @llvm.lifetime.end.p0(i64 8, ptr %22) #8
  call void @llvm.lifetime.end.p0(i64 8, ptr %21) #8
  call void @llvm.lifetime.end.p0(i64 8, ptr %20) #8
  call void @llvm.lifetime.end.p0(i64 1, ptr %19) #8
  call void @llvm.lifetime.end.p0(i64 4, ptr %18) #8
  call void @llvm.lifetime.end.p0(i64 4, ptr %17) #8
  call void @llvm.lifetime.end.p0(i64 4, ptr %16) #8
  call void @llvm.lifetime.end.p0(i64 4, ptr %15) #8
  call void @llvm.lifetime.end.p0(i64 4, ptr %14) #8
  call void @llvm.lifetime.end.p0(i64 1, ptr %13) #8
  call void @llvm.lifetime.end.p0(i64 4, ptr %12) #8
  call void @llvm.lifetime.end.p0(i64 8, ptr %11) #8
  call void @llvm.lifetime.end.p0(i64 8, ptr %10) #8
  call void @llvm.lifetime.end.p0(i64 1, ptr %9) #8
  ret i32 %208
}