; Function Attrs: null_pointer_is_valid sspstrong uwtable
define internal i32 @wkh_content_disposition(ptr noundef %0, ptr noundef %1, i32 noundef %2, ptr noundef %3) #1 {
  %5 = alloca ptr, align 8
  %6 = alloca i32, align 4
  %7 = alloca i32, align 4
  %8 = alloca i32, align 4
  call void @llvm.lifetime.start.p0(i64 8, ptr nonnull %5) #5
  %9 = add i32 %2, 1
  %10 = tail call zeroext i8 @tvb_get_uint8(ptr noundef %1, i32 noundef %9)
  call void @llvm.lifetime.start.p0(i64 4, ptr nonnull %6) #5
  call void @llvm.lifetime.start.p0(i64 4, ptr nonnull %7) #5
  call void @llvm.lifetime.start.p0(i64 4, ptr nonnull %8) #5
  %11 = load i32, ptr @ett_content_disposition, align 4
  %12 = call ptr @proto_tree_add_subtree(ptr noundef %0, ptr noundef %1, i32 noundef %2, i32 noundef 1, i32 noundef %11, ptr noundef nonnull %5, ptr noundef nonnull @.str.1108)
  %13 = load i32, ptr @hf_hdr_name_value, align 4
  %14 = call ptr @proto_tree_add_item(ptr noundef %12, i32 noundef %13, ptr noundef %1, i32 noundef %2, i32 noundef 1, i32 noundef 0)
  %.not = icmp sgt i8 %10, -1
  br i1 %.not, label %17, label %15

15:                                               ; preds = %4
  %16 = add i32 %2, 2
  br label %.thread97

17:                                               ; preds = %4
  %18 = add nsw i8 %10, -32
  %or.cond = icmp ult i8 %18, -31
  br i1 %or.cond, label %19, label %24

19:                                               ; preds = %17
  %20 = call ptr @wmem_packet_scope()
  %21 = call ptr @tvb_get_stringz_enc(ptr noundef %20, ptr noundef %1, i32 noundef %9, ptr noundef nonnull %6, i32 noundef 0)
  %22 = load i32, ptr %6, align 4
  %23 = add i32 %22, %9
  br label %.thread97

24:                                               ; preds = %17
  %25 = icmp eq i8 %10, 31
  br i1 %25, label %26, label %31

26:                                               ; preds = %24
  %27 = add i32 %2, 2
  %28 = call i32 @tvb_get_uintvar(ptr noundef %1, i32 noundef %27, ptr noundef nonnull %7, ptr noundef %3, ptr noundef nonnull @ei_wsp_oversized_uintvar)
  %29 = load i32, ptr %7, align 4
  %30 = add i32 %29, 1
  br label %34

31:                                               ; preds = %24
  %32 = call zeroext i8 @tvb_get_uint8(ptr noundef %1, i32 noundef %9)
  %33 = zext i8 %32 to i32
  br label %34

34:                                               ; preds = %31, %26
  %.sink = phi i32 [ %28, %26 ], [ %33, %31 ]
  %storemerge = phi i32 [ %30, %26 ], [ 1, %31 ]
  store i32 %.sink, ptr %6, align 4
  store i32 %storemerge, ptr %7, align 4
  %35 = add i32 %storemerge, %9
  %36 = add i32 %35, %.sink
  %37 = call zeroext i8 @tvb_get_uint8(ptr noundef %1, i32 noundef %35)
  %.not90 = icmp sgt i8 %37, -1
  br i1 %.not90, label %46, label %38

38:                                               ; preds = %34
  %switch.tableidx = and i8 %37, 127
  %39 = icmp samesign ult i8 %switch.tableidx, 3
  br i1 %39, label %switch.lookup, label %44

switch.lookup:                                    ; preds = %38
  %40 = zext nneg i8 %switch.tableidx to i64
  %switch.gep = getelementptr inbounds nuw [3 x ptr], ptr @switch.table.wkh_content_disposition, i64 0, i64 %40
  %switch.load = load ptr, ptr %switch.gep, align 8
  %41 = load i32, ptr @hf_hdr_content_disposition, align 4
  %42 = sub i32 %36, %2
  %43 = call ptr @proto_tree_add_string(ptr noundef %0, i32 noundef %41, ptr noundef %1, i32 noundef %2, i32 noundef %42, ptr noundef nonnull %switch.load)
  br label %44

44:                                               ; preds = %38, %switch.lookup
  %.0 = phi ptr [ null, %38 ], [ %43, %switch.lookup ]
  %45 = add i32 %35, 1
  br label %65

46:                                               ; preds = %34
  %47 = call zeroext i8 @tvb_get_uint8(ptr noundef %1, i32 noundef %35)
  %48 = icmp eq i8 %47, 0
  br i1 %48, label %56, label %49

49:                                               ; preds = %46
  %50 = call zeroext i8 @tvb_get_uint8(ptr noundef %1, i32 noundef %35)
  %51 = icmp ugt i8 %50, 31
  br i1 %51, label %52, label %55

52:                                               ; preds = %49
  %53 = call zeroext i8 @tvb_get_uint8(ptr noundef %1, i32 noundef %35)
  %54 = icmp sgt i8 %53, -1
  br i1 %54, label %56, label %55

55:                                               ; preds = %49, %52
  store i32 0, ptr %8, align 4
  br label %62

56:                                               ; preds = %46, %52
  %57 = call ptr @wmem_packet_scope()
  %58 = call ptr @tvb_get_stringz_enc(ptr noundef %57, ptr noundef %1, i32 noundef %35, ptr noundef nonnull %8, i32 noundef 0)
  %59 = load i32, ptr @hf_hdr_content_disposition, align 4
  %60 = sub i32 %36, %2
  %61 = call ptr @proto_tree_add_string(ptr noundef %0, i32 noundef %59, ptr noundef %1, i32 noundef %2, i32 noundef %60, ptr noundef %58)
  %.pre = load i32, ptr %8, align 4
  br label %62

62:                                               ; preds = %55, %56
  %63 = phi i32 [ %.pre, %56 ], [ 0, %55 ]
  %.394 = phi i1 [ true, %56 ], [ false, %55 ]
  %.2 = phi ptr [ %61, %56 ], [ null, %55 ]
  %64 = add i32 %63, %35
  br label %65

65:                                               ; preds = %62, %44
  %.084 = phi i32 [ %45, %44 ], [ %64, %62 ]
  %.283 = phi i1 [ %39, %44 ], [ %.394, %62 ]
  %.1 = phi ptr [ %.0, %44 ], [ %.2, %62 ]
  %66 = icmp ult i32 %.084, %36
  %or.cond91 = select i1 %.283, i1 %66, i1 false
  br i1 %or.cond91, label %67, label %.loopexit

67:                                               ; preds = %65
  %68 = load i32, ptr @ett_header, align 4
  %69 = call ptr @proto_item_add_subtree(ptr noundef %.1, i32 noundef %68)
  br label %70

70:                                               ; preds = %67, %70
  %.185102 = phi i32 [ %.084, %67 ], [ %72, %70 ]
  %71 = sub nuw i32 %36, %.185102
  %72 = call fastcc i32 @parameter(ptr noundef %69, ptr noundef %3, ptr noundef %.1, ptr noundef %1, i32 noundef %.185102, i32 noundef %71)
  %73 = icmp ult i32 %72, %36
  br i1 %73, label %70, label %.loopexit, !llvm.loop !19

.loopexit:                                        ; preds = %70, %65
  br i1 %.283, label %76, label %.thread97

.thread97:                                        ; preds = %19, %15, %.loopexit
  %.086100 = phi i32 [ %36, %.loopexit ], [ %23, %19 ], [ %16, %15 ]
  %74 = load ptr, ptr %5, align 8
  %75 = call ptr @expert_add_info(ptr noundef %3, ptr noundef %74, ptr noundef nonnull @ei_wsp_header_invalid_value)
  br label %76

76:                                               ; preds = %.thread97, %.loopexit
  %.086101 = phi i32 [ %.086100, %.thread97 ], [ %36, %.loopexit ]
  call void @llvm.lifetime.end.p0(i64 4, ptr nonnull %8) #5
  call void @llvm.lifetime.end.p0(i64 4, ptr nonnull %7) #5
  call void @llvm.lifetime.end.p0(i64 4, ptr nonnull %6) #5
  call void @llvm.lifetime.end.p0(i64 8, ptr nonnull %5) #5
  ret i32 %.086101
}